; Function Attrs: mustprogress nounwind uwtable
define noundef nonnull align 8 dereferenceable(8) ptr @_ZN4LIEF8assembly3x867Operand8IteratoraSEOS3_(ptr noundef nonnull returned align 8 dereferenceable(8) %0, ptr noundef nonnull align 8 captures(none) dereferenceable(8) %1) local_unnamed_addr #1 align 2 {
  %3 = load ptr, ptr %1, align 8, !tbaa !59
  store ptr null, ptr %1, align 8, !tbaa !59
  %4 = load ptr, ptr %0, align 8, !tbaa !59
  store ptr %3, ptr %0, align 8, !tbaa !59
  %.not.i.i.i.i = icmp eq ptr %4, null
  br i1 %.not.i.i.i.i, label %_ZNSt10unique_ptrIN4LIEF8assembly3x867details9OperandItESt14default_deleteIS4_EEaSEOS7_.exit, label %_ZNKSt14default_deleteIN4LIEF8assembly3x867details9OperandItEEclEPS4_.exit.i.i.i.i

_ZNKSt14default_deleteIN4LIEF8assembly3x867details9OperandItEEclEPS4_.exit.i.i.i.i: ; preds = %2
  tail call void @_ZdlPvm(ptr noundef nonnull %4, i64 noundef 1) #28
  br label %_ZNSt10unique_ptrIN4LIEF8assembly3x867details9OperandItESt14default_deleteIS4_EEaSEOS7_.exit

_ZNSt10unique_ptrIN4LIEF8assembly3x867details9OperandItESt14default_deleteIS4_EEaSEOS7_.exit: ; preds = %2, %_ZNKSt14default_deleteIN4LIEF8assembly3x867details9OperandItEEclEPS4_.exit.i.i.i.i
  ret ptr %0
}